; Function Attrs: mustprogress nounwind memory(argmem: readwrite, inaccessiblemem: write) uwtable
define dso_local void @_ZN4i18n12phonenumbers12StringHolderC2EPKc(ptr noundef nonnull writeonly align 8 captures(none) dereferenceable(48) initializes((0, 8)) %0, ptr noundef %1) unnamed_addr #7 align 2 {
  store ptr %1, ptr %0, align 8, !tbaa !15
  %.not.i.i = icmp eq ptr %1, null
  br i1 %.not.i.i, label %_ZN4absl7debian28AlphaNumC2EPKc.exit, label %3

3:                                                ; preds = %2
  %4 = tail call noundef i64 @strlen(ptr noundef nonnull dereferenceable(1) %1) #19
  %5 = icmp sgt i64 %4, -1
  br i1 %5, label %_ZN4absl7debian28AlphaNumC2EPKc.exit, label %6, !prof !17

6:                                                ; preds = %3
  tail call void @llvm.trap()
  unreachable

_ZN4absl7debian28AlphaNumC2EPKc.exit:             ; preds = %2, %3
  %7 = phi i64 [ 0, %2 ], [ %4, %3 ]
  %8 = getelementptr inbounds nuw i8, ptr %0, i64 8
  store i64 %7, ptr %8, align 8, !tbaa !18
  ret void
}